; Function Attrs: nounwind uwtable
define internal i32 @OnUpdateJit(ptr noundef %0, ptr noundef %1, ptr noundef %2, ptr noundef %3, ptr noundef %4, i32 noundef %5) #0 {
  %7 = tail call i32 @zend_jit_config(ptr noundef %1, i32 noundef %5) #14
  %8 = icmp eq i32 %7, 0
  br i1 %8, label %9, label %11

9:                                                ; preds = %6
  %10 = tail call i32 @OnUpdateString(ptr noundef %0, ptr noundef %1, ptr noundef %2, ptr noundef %3, ptr noundef %4, i32 noundef %5) #14
  br label %11

11:                                               ; preds = %6, %9
  %.0 = phi i32 [ %10, %9 ], [ -1, %6 ]
  ret i32 %.0
}